; Function Attrs: mustprogress uwtable
define noundef nonnull align 8 dereferenceable(24) ptr @_ZNK18llama_model_loader14require_weightEPKc(ptr noundef nonnull align 8 dereferenceable(320) %0, ptr noundef %1) local_unnamed_addr #1 align 2 personality ptr @__gxx_personality_v0 {
  %3 = alloca %"class.std::__cxx11::basic_string", align 8
  %4 = tail call noundef ptr @_ZNK18llama_model_loader10get_weightEPKc(ptr noundef nonnull align 8 dereferenceable(320) %0, ptr noundef %1)
  %.not = icmp eq ptr %4, null
  br i1 %.not, label %5, label %22

5:                                                ; preds = %2
  %6 = tail call ptr @__cxa_allocate_exception(i64 16) #32
  call void @llvm.lifetime.start.p0(i64 32, ptr nonnull %3) #32
  invoke void (ptr, ptr, ...) @_Z6formatB5cxx11PKcz(ptr dead_on_unwind nonnull writable sret(%"class.std::__cxx11::basic_string") align 8 %3, ptr noundef nonnull @.str.28, ptr noundef nonnull @__func__._ZNK18llama_model_loader14require_weightEPKc, ptr noundef %1)
          to label %7 unwind label %_ZNSt7__cxx1112basic_stringIcSt11char_traitsIcESaIcEED2Ev.exit.thread

7:                                                ; preds = %5
  invoke void @_ZNSt13runtime_errorC1ERKNSt7__cxx1112basic_stringIcSt11char_traitsIcESaIcEEE(ptr noundef nonnull align 8 dereferenceable(16) %6, ptr noundef nonnull align 8 dereferenceable(32) %3)
          to label %8 unwind label %10

8:                                                ; preds = %7
  invoke void @__cxa_throw(ptr nonnull %6, ptr nonnull @_ZTISt13runtime_error, ptr nonnull @_ZNSt13runtime_errorD1Ev) #34
          to label %23 unwind label %10

_ZNSt7__cxx1112basic_stringIcSt11char_traitsIcESaIcEED2Ev.exit.thread: ; preds = %5
  %9 = landingpad { ptr, i32 }
          cleanup
  call void @llvm.lifetime.end.p0(i64 32, ptr nonnull %3) #32
  br label %20

10:                                               ; preds = %8, %7
  %.0 = phi i1 [ false, %8 ], [ true, %7 ]
  %11 = landingpad { ptr, i32 }
          cleanup
  %12 = load ptr, ptr %3, align 8, !tbaa !3
  %13 = getelementptr inbounds nuw i8, ptr %3, i64 16
  %14 = icmp eq ptr %12, %13
  br i1 %14, label %_ZNKSt7__cxx1112basic_stringIcSt11char_traitsIcESaIcEE11_M_is_localEv.exit.thread.i.i, label %_ZNSt7__cxx1112basic_stringIcSt11char_traitsIcESaIcEED2Ev.exit

_ZNKSt7__cxx1112basic_stringIcSt11char_traitsIcESaIcEE11_M_is_localEv.exit.thread.i.i: ; preds = %10
  %15 = getelementptr inbounds nuw i8, ptr %3, i64 8
  %16 = load i64, ptr %15, align 8, !tbaa !11
  %17 = icmp ult i64 %16, 16
  call void @llvm.assume(i1 %17)
  call void @llvm.lifetime.end.p0(i64 32, ptr nonnull %3) #32
  br i1 %.0, label %20, label %21

_ZNSt7__cxx1112basic_stringIcSt11char_traitsIcESaIcEED2Ev.exit: ; preds = %10
  %18 = load i64, ptr %13, align 8, !tbaa !12
  %19 = add i64 %18, 1
  call void @_ZdlPvm(ptr noundef %12, i64 noundef %19) #33
  call void @llvm.lifetime.end.p0(i64 32, ptr nonnull %3) #32
  br i1 %.0, label %20, label %21

20:                                               ; preds = %_ZNKSt7__cxx1112basic_stringIcSt11char_traitsIcESaIcEE11_M_is_localEv.exit.thread.i.i, %_ZNSt7__cxx1112basic_stringIcSt11char_traitsIcESaIcEED2Ev.exit.thread, %_ZNSt7__cxx1112basic_stringIcSt11char_traitsIcESaIcEED2Ev.exit
  %.pn14 = phi { ptr, i32 } [ %9, %_ZNSt7__cxx1112basic_stringIcSt11char_traitsIcESaIcEED2Ev.exit.thread ], [ %11, %_ZNSt7__cxx1112basic_stringIcSt11char_traitsIcESaIcEED2Ev.exit ], [ %11, %_ZNKSt7__cxx1112basic_stringIcSt11char_traitsIcESaIcEE11_M_is_localEv.exit.thread.i.i ]
  call void @__cxa_free_exception(ptr %6) #32
  br label %21

21:                                               ; preds = %_ZNKSt7__cxx1112basic_stringIcSt11char_traitsIcESaIcEE11_M_is_localEv.exit.thread.i.i, %20, %_ZNSt7__cxx1112basic_stringIcSt11char_traitsIcESaIcEED2Ev.exit
  %.pn13 = phi { ptr, i32 } [ %.pn14, %20 ], [ %11, %_ZNSt7__cxx1112basic_stringIcSt11char_traitsIcESaIcEED2Ev.exit ], [ %11, %_ZNKSt7__cxx1112basic_stringIcSt11char_traitsIcESaIcEE11_M_is_localEv.exit.thread.i.i ]
  resume { ptr, i32 } %.pn13

22:                                               ; preds = %2
  ret ptr %4

23:                                               ; preds = %8
  unreachable
}